; Function Attrs: mustprogress nofree norecurse nosync nounwind memory(read, argmem: readwrite, inaccessiblemem: none) uwtable
define internal noundef i64 @_ZNK5faiss12_GLOBAL__N_110IVFScannerINS_16HammingComputer4EE10scan_codesEmPKhPKlPfPlm(ptr nocapture noundef nonnull readonly align 8 dereferenceable(140) %0, i64 noundef %1, ptr nocapture noundef readonly %2, ptr nocapture noundef readonly %3, ptr nocapture noundef %4, ptr nocapture noundef %5, i64 noundef %6) unnamed_addr #17 align 2 {
  %.not24 = icmp eq i64 %1, 0
  br i1 %.not24, label %._crit_edge, label %.lr.ph

.lr.ph:                                           ; preds = %7
  %8 = getelementptr inbounds i8, ptr %0, i64 136
  %9 = getelementptr inbounds i8, ptr %0, i64 17
  %10 = getelementptr inbounds i8, ptr %0, i64 8
  %11 = getelementptr inbounds i8, ptr %4, i64 -4
  %12 = getelementptr inbounds i8, ptr %5, i64 -8
  %13 = icmp ult i64 %6, 2
  %.phi.trans.insert.i.i = getelementptr inbounds float, ptr %11, i64 %6
  %14 = getelementptr inbounds i8, ptr %0, i64 32
  br i1 %13, label %.lr.ph.split.us, label %.lr.ph.split

.lr.ph.split.us:                                  ; preds = %.lr.ph, %34
  %.023.us = phi ptr [ %36, %34 ], [ %2, %.lr.ph ]
  %.01722.us = phi i64 [ %.1.us, %34 ], [ 0, %.lr.ph ]
  %.01820.us = phi i64 [ %37, %34 ], [ 0, %.lr.ph ]
  %15 = load i32, ptr %.023.us, align 4
  %16 = load i32, ptr %8, align 8
  %17 = xor i32 %16, %15
  %18 = tail call noundef i32 @llvm.ctpop.i32(i32 %17), !range !25
  %19 = sitofp i32 %18 to float
  %20 = load float, ptr %4, align 4
  %21 = fcmp ogt float %20, %19
  br i1 %21, label %22, label %34

22:                                               ; preds = %.lr.ph.split.us
  %23 = load i8, ptr %9, align 1
  %24 = and i8 %23, 1
  %.not.us = icmp eq i8 %24, 0
  br i1 %.not.us, label %29, label %25

25:                                               ; preds = %22
  %26 = load i64, ptr %10, align 8
  %27 = shl i64 %26, 32
  %28 = or i64 %27, %.01820.us
  br label %_ZN5faiss19maxheap_replace_topIfEEvmPT_PlS1_l.exit.us

29:                                               ; preds = %22
  %30 = getelementptr inbounds i64, ptr %3, i64 %.01820.us
  %31 = load i64, ptr %30, align 8
  br label %_ZN5faiss19maxheap_replace_topIfEEvmPT_PlS1_l.exit.us

_ZN5faiss19maxheap_replace_topIfEEvmPT_PlS1_l.exit.us: ; preds = %29, %25
  %32 = phi i64 [ %28, %25 ], [ %31, %29 ]
  store float %19, ptr %4, align 4
  store i64 %32, ptr %5, align 8
  %33 = add i64 %.01722.us, 1
  br label %34

34:                                               ; preds = %_ZN5faiss19maxheap_replace_topIfEEvmPT_PlS1_l.exit.us, %.lr.ph.split.us
  %.1.us = phi i64 [ %33, %_ZN5faiss19maxheap_replace_topIfEEvmPT_PlS1_l.exit.us ], [ %.01722.us, %.lr.ph.split.us ]
  %35 = load i64, ptr %14, align 8
  %36 = getelementptr inbounds i8, ptr %.023.us, i64 %35
  %37 = add nuw i64 %.01820.us, 1
  %exitcond26.not = icmp eq i64 %37, %1
  br i1 %exitcond26.not, label %._crit_edge, label %.lr.ph.split.us, !llvm.loop !26

.lr.ph.split:                                     ; preds = %.lr.ph, %94
  %.023 = phi ptr [ %96, %94 ], [ %2, %.lr.ph ]
  %.01722 = phi i64 [ %.1, %94 ], [ 0, %.lr.ph ]
  %.01820 = phi i64 [ %97, %94 ], [ 0, %.lr.ph ]
  %38 = load i32, ptr %.023, align 4
  %39 = load i32, ptr %8, align 8
  %40 = xor i32 %39, %38
  %41 = tail call noundef i32 @llvm.ctpop.i32(i32 %40), !range !25
  %42 = sitofp i32 %41 to float
  %43 = load float, ptr %4, align 4
  %44 = fcmp ogt float %43, %42
  br i1 %44, label %45, label %94

45:                                               ; preds = %.lr.ph.split
  %46 = load i8, ptr %9, align 1
  %47 = and i8 %46, 1
  %.not = icmp eq i8 %47, 0
  br i1 %.not, label %52, label %48

48:                                               ; preds = %45
  %49 = load i64, ptr %10, align 8
  %50 = shl i64 %49, 32
  %51 = or i64 %50, %.01820
  br label %.lr.ph.preheader.i.i

52:                                               ; preds = %45
  %53 = getelementptr inbounds i64, ptr %3, i64 %.01820
  %54 = load i64, ptr %53, align 8
  br label %.lr.ph.preheader.i.i

.lr.ph.preheader.i.i:                             ; preds = %52, %48
  %55 = phi i64 [ %51, %48 ], [ %54, %52 ]
  br label %.lr.ph.i.i

.lr.ph.i.i:                                       ; preds = %84, %.lr.ph.preheader.i.i
  %56 = phi i64 [ %89, %84 ], [ 3, %.lr.ph.preheader.i.i ]
  %57 = phi i64 [ %88, %84 ], [ 2, %.lr.ph.preheader.i.i ]
  %.056.i.i = phi i64 [ %.1.i.i, %84 ], [ 1, %.lr.ph.preheader.i.i ]
  %58 = icmp eq i64 %57, %6
  br i1 %58, label %.lr.ph._ZN5faiss4CMaxIflE4cmp2Effll.exit.thread_crit_edge.i.i, label %59

.lr.ph._ZN5faiss4CMaxIflE4cmp2Effll.exit.thread_crit_edge.i.i: ; preds = %.lr.ph.i.i
  %.pre.i.i = load float, ptr %.phi.trans.insert.i.i, align 4
  br label %_ZN5faiss4CMaxIflE4cmp2Effll.exit.thread.i.i

59:                                               ; preds = %.lr.ph.i.i
  %60 = getelementptr inbounds float, ptr %11, i64 %57
  %61 = load float, ptr %60, align 4
  %62 = getelementptr inbounds float, ptr %11, i64 %56
  %63 = load float, ptr %62, align 4
  %64 = getelementptr inbounds i64, ptr %12, i64 %56
  %65 = load i64, ptr %64, align 8
  %66 = fcmp ogt float %61, %63
  br i1 %66, label %_ZN5faiss4CMaxIflE4cmp2Effll.exit.thread.i.i, label %_ZN5faiss4CMaxIflE4cmp2Effll.exit.i.i

_ZN5faiss4CMaxIflE4cmp2Effll.exit.i.i:            ; preds = %59
  %67 = getelementptr inbounds i64, ptr %12, i64 %57
  %68 = load i64, ptr %67, align 8
  %69 = fcmp oeq float %61, %63
  %70 = icmp sgt i64 %68, %65
  %71 = and i1 %69, %70
  br i1 %71, label %_ZN5faiss4CMaxIflE4cmp2Effll.exit.thread.i.i, label %79

_ZN5faiss4CMaxIflE4cmp2Effll.exit.thread.i.i:     ; preds = %_ZN5faiss4CMaxIflE4cmp2Effll.exit.i.i, %59, %.lr.ph._ZN5faiss4CMaxIflE4cmp2Effll.exit.thread_crit_edge.i.i
  %72 = phi float [ %.pre.i.i, %.lr.ph._ZN5faiss4CMaxIflE4cmp2Effll.exit.thread_crit_edge.i.i ], [ %61, %59 ], [ %61, %_ZN5faiss4CMaxIflE4cmp2Effll.exit.i.i ]
  %73 = fcmp olt float %72, %42
  br i1 %73, label %_ZN5faiss19maxheap_replace_topIfEEvmPT_PlS1_l.exit.loopexit, label %_ZN5faiss4CMaxIflE4cmp2Effll.exit54.i.i

_ZN5faiss4CMaxIflE4cmp2Effll.exit54.i.i:          ; preds = %_ZN5faiss4CMaxIflE4cmp2Effll.exit.thread.i.i
  %74 = getelementptr inbounds i64, ptr %12, i64 %57
  %75 = load i64, ptr %74, align 8
  %76 = fcmp oeq float %72, %42
  %77 = icmp slt i64 %75, %55
  %78 = and i1 %76, %77
  br i1 %78, label %_ZN5faiss19maxheap_replace_topIfEEvmPT_PlS1_l.exit.loopexit, label %84

79:                                               ; preds = %_ZN5faiss4CMaxIflE4cmp2Effll.exit.i.i
  %80 = fcmp olt float %63, %42
  br i1 %80, label %_ZN5faiss19maxheap_replace_topIfEEvmPT_PlS1_l.exit.loopexit, label %_ZN5faiss4CMaxIflE4cmp2Effll.exit55.i.i

_ZN5faiss4CMaxIflE4cmp2Effll.exit55.i.i:          ; preds = %79
  %81 = fcmp oeq float %63, %42
  %82 = icmp slt i64 %65, %55
  %83 = and i1 %81, %82
  br i1 %83, label %_ZN5faiss19maxheap_replace_topIfEEvmPT_PlS1_l.exit.loopexit, label %84

84:                                               ; preds = %_ZN5faiss4CMaxIflE4cmp2Effll.exit55.i.i, %_ZN5faiss4CMaxIflE4cmp2Effll.exit54.i.i
  %.sink.i.i = phi float [ %72, %_ZN5faiss4CMaxIflE4cmp2Effll.exit54.i.i ], [ %63, %_ZN5faiss4CMaxIflE4cmp2Effll.exit55.i.i ]
  %.sink63.i.i = phi ptr [ %74, %_ZN5faiss4CMaxIflE4cmp2Effll.exit54.i.i ], [ %64, %_ZN5faiss4CMaxIflE4cmp2Effll.exit55.i.i ]
  %.1.i.i = phi i64 [ %57, %_ZN5faiss4CMaxIflE4cmp2Effll.exit54.i.i ], [ %56, %_ZN5faiss4CMaxIflE4cmp2Effll.exit55.i.i ]
  %85 = getelementptr inbounds float, ptr %11, i64 %.056.i.i
  store float %.sink.i.i, ptr %85, align 4
  %86 = load i64, ptr %.sink63.i.i, align 8
  %87 = getelementptr inbounds i64, ptr %12, i64 %.056.i.i
  store i64 %86, ptr %87, align 8
  %88 = shl i64 %.1.i.i, 1
  %89 = or disjoint i64 %88, 1
  %90 = icmp ugt i64 %88, %6
  br i1 %90, label %_ZN5faiss19maxheap_replace_topIfEEvmPT_PlS1_l.exit.loopexit, label %.lr.ph.i.i, !llvm.loop !27

_ZN5faiss19maxheap_replace_topIfEEvmPT_PlS1_l.exit.loopexit: ; preds = %84, %_ZN5faiss4CMaxIflE4cmp2Effll.exit55.i.i, %79, %_ZN5faiss4CMaxIflE4cmp2Effll.exit54.i.i, %_ZN5faiss4CMaxIflE4cmp2Effll.exit.thread.i.i
  %.0.lcssa.i.i.ph = phi i64 [ %.056.i.i, %79 ], [ %.056.i.i, %_ZN5faiss4CMaxIflE4cmp2Effll.exit.thread.i.i ], [ %.056.i.i, %_ZN5faiss4CMaxIflE4cmp2Effll.exit55.i.i ], [ %.056.i.i, %_ZN5faiss4CMaxIflE4cmp2Effll.exit54.i.i ], [ %.1.i.i, %84 ]
  %91 = getelementptr inbounds float, ptr %11, i64 %.0.lcssa.i.i.ph
  store float %42, ptr %91, align 4
  %92 = getelementptr inbounds i64, ptr %12, i64 %.0.lcssa.i.i.ph
  store i64 %55, ptr %92, align 8
  %93 = add i64 %.01722, 1
  br label %94

94:                                               ; preds = %_ZN5faiss19maxheap_replace_topIfEEvmPT_PlS1_l.exit.loopexit, %.lr.ph.split
  %.1 = phi i64 [ %93, %_ZN5faiss19maxheap_replace_topIfEEvmPT_PlS1_l.exit.loopexit ], [ %.01722, %.lr.ph.split ]
  %95 = load i64, ptr %14, align 8
  %96 = getelementptr inbounds i8, ptr %.023, i64 %95
  %97 = add nuw i64 %.01820, 1
  %exitcond.not = icmp eq i64 %97, %1
  br i1 %exitcond.not, label %._crit_edge, label %.lr.ph.split, !llvm.loop !26

._crit_edge:                                      ; preds = %94, %34, %7
  %.017.lcssa = phi i64 [ 0, %7 ], [ %.1.us, %34 ], [ %.1, %94 ]
  ret i64 %.017.lcssa
}